; Function Attrs: nounwind uwtable
define ptr @l_Array_foldlMUnsafe_fold___at___private_Lean_Meta_AppBuilder_0__Lean_Meta_mkAppOptMAux___spec__1(ptr noundef readonly captures(none) %0, i64 noundef %1, i64 noundef %2, ptr noundef %3) local_unnamed_addr #0 {
  %.not38 = icmp eq i64 %1, %2
  br i1 %.not38, label %._crit_edge, label %.lr.ph

.lr.ph:                                           ; preds = %4
  %5 = getelementptr inbounds nuw i8, ptr %0, i64 24
  br label %6

6:                                                ; preds = %.lr.ph, %44
  %.01840 = phi i64 [ %1, %.lr.ph ], [ %23, %44 ]
  %.02239 = phi ptr [ %3, %.lr.ph ], [ %.224, %44 ]
  %7 = getelementptr inbounds nuw [0 x ptr], ptr %5, i64 0, i64 %.01840
  %8 = load ptr, ptr %7, align 8, !tbaa !10
  %9 = ptrtoint ptr %8 to i64
  %10 = and i64 %9, 1
  %.not.i25 = icmp eq i64 %10, 0
  br i1 %.not.i25, label %11, label %17

11:                                               ; preds = %6
  %.val.i.i = load i32, ptr %8, align 4, !tbaa !4
  %12 = icmp sgt i32 %.val.i.i, 0
  br i1 %12, label %13, label %15, !prof !9

13:                                               ; preds = %11
  %14 = add nuw i32 %.val.i.i, 1
  store i32 %14, ptr %8, align 4, !tbaa !4
  br label %20

15:                                               ; preds = %11
  %.not.i.i = icmp eq i32 %.val.i.i, 0
  br i1 %.not.i.i, label %20, label %16

16:                                               ; preds = %15
  tail call void @lean_inc_ref_cold(ptr noundef nonnull %8) #5
  br label %20

17:                                               ; preds = %6
  %18 = lshr i64 %9, 1
  %19 = trunc i64 %18 to i32
  br label %lean_obj_tag.exit

20:                                               ; preds = %13, %15, %16
  %21 = getelementptr i8, ptr %8, i64 4
  %.val.i = load i32, ptr %21, align 4
  %22 = lshr i32 %.val.i, 24
  br label %lean_obj_tag.exit

lean_obj_tag.exit:                                ; preds = %17, %20
  %.0.i = phi i32 [ %19, %17 ], [ %22, %20 ]
  %23 = add i64 %.01840, 1
  %24 = icmp eq i32 %.0.i, 0
  br i1 %24, label %44, label %25

25:                                               ; preds = %lean_obj_tag.exit
  %26 = getelementptr inbounds nuw i8, ptr %8, i64 8
  %27 = load ptr, ptr %26, align 8, !tbaa !10
  %28 = ptrtoint ptr %27 to i64
  %29 = and i64 %28, 1
  %.not36 = icmp eq i64 %29, 0
  br i1 %.not36, label %30, label %lean_inc.exit

30:                                               ; preds = %25
  %.val.i27 = load i32, ptr %27, align 4, !tbaa !4
  %31 = icmp sgt i32 %.val.i27, 0
  br i1 %31, label %32, label %34, !prof !9

32:                                               ; preds = %30
  %33 = add nuw i32 %.val.i27, 1
  store i32 %33, ptr %27, align 4, !tbaa !4
  br label %lean_inc.exit

34:                                               ; preds = %30
  %.not.i28 = icmp eq i32 %.val.i27, 0
  br i1 %.not.i28, label %lean_inc.exit, label %35

35:                                               ; preds = %34
  tail call void @lean_inc_ref_cold(ptr noundef nonnull %27) #5
  br label %lean_inc.exit

lean_inc.exit:                                    ; preds = %35, %34, %32, %25
  br i1 %.not.i25, label %36, label %lean_dec.exit

36:                                               ; preds = %lean_inc.exit
  %37 = load i32, ptr %8, align 4, !tbaa !4
  %38 = icmp sgt i32 %37, 1
  br i1 %38, label %39, label %41, !prof !9

39:                                               ; preds = %36
  %40 = add nsw i32 %37, -1
  store i32 %40, ptr %8, align 4, !tbaa !4
  br label %lean_dec.exit

41:                                               ; preds = %36
  %.not.i = icmp eq i32 %37, 0
  br i1 %.not.i, label %lean_dec.exit, label %42

42:                                               ; preds = %41
  tail call void @lean_dec_ref_cold(ptr noundef nonnull %8) #5
  br label %lean_dec.exit

lean_dec.exit:                                    ; preds = %42, %41, %39, %lean_inc.exit
  %43 = tail call ptr @lean_array_push(ptr noundef %.02239, ptr noundef %27) #5
  br label %44

44:                                               ; preds = %lean_dec.exit, %lean_obj_tag.exit
  %.224 = phi ptr [ %43, %lean_dec.exit ], [ %.02239, %lean_obj_tag.exit ]
  %.not = icmp eq i64 %23, %2
  br i1 %.not, label %._crit_edge, label %6

._crit_edge:                                      ; preds = %44, %4
  %.022.lcssa = phi ptr [ %3, %4 ], [ %.224, %44 ]
  ret ptr %.022.lcssa
}